target datalayout = "e-m:e-p270:32:32-p271:32:32-p272:64:64-i64:64-i128:128-f80:128-n8:16:32:64-S128"
target triple = "x86_64-pc-linux-gnu"

%"class.zmq::dist_t" = type <{ %"class.zmq::array_t", i64, i64, i64, i8, [7 x i8] }>
%"class.zmq::array_t" = type { %"class.std::vector" }
%"class.std::vector" = type { %"struct.std::_Vector_base" }
%"struct.std::_Vector_base" = type { %"struct.std::_Vector_base<zmq::pipe_t *, std::allocator<zmq::pipe_t *>>::_Vector_impl" }
%"struct.std::_Vector_base<zmq::pipe_t *, std::allocator<zmq::pipe_t *>>::_Vector_impl" = type { %"struct.std::_Vector_base<zmq::pipe_t *, std::allocator<zmq::pipe_t *>>::_Vector_impl_data" }
%"struct.std::_Vector_base<zmq::pipe_t *, std::allocator<zmq::pipe_t *>>::_Vector_impl_data" = type { ptr, ptr, ptr }
%"class.zmq::array_item_t.7" = type <{ ptr, i32, [4 x i8] }>

; Function Attrs: inlinehint mustprogress nounwind uwtable
define linkonce_odr void @_ZSt4swapIPN3zmq6pipe_tEENSt9enable_ifIXsr6__and_ISt6__not_ISt15__is_tuple_likeIT_EESt21is_move_constructibleIS6_ESt18is_move_assignableIS6_EEE5valueEvE4typeERS6_SF_(ptr noundef nonnull align 8 dereferenceable(8) %0, ptr noundef nonnull align 8 dereferenceable(8) %1) #5 comdat {
  %3 = alloca ptr, align 8
  %4 = alloca ptr, align 8
  %5 = alloca ptr, align 8
  store ptr %0, ptr %3, align 8, !tbaa !58
  store ptr %1, ptr %4, align 8, !tbaa !58
  call void @llvm.lifetime.start.p0(i64 8, ptr %5) #14
  %6 = load ptr, ptr %3, align 8, !tbaa !58
  %7 = load ptr, ptr %6, align 8, !tbaa !26
  store ptr %7, ptr %5, align 8, !tbaa !26
  %8 = load ptr, ptr %4, align 8, !tbaa !58
  %9 = load ptr, ptr %8, align 8, !tbaa !26
  %10 = load ptr, ptr %3, align 8, !tbaa !58
  store ptr %9, ptr %10, align 8, !tbaa !26
  %11 = load ptr, ptr %5, align 8, !tbaa !26
  %12 = load ptr, ptr %4, align 8, !tbaa !58
  store ptr %11, ptr %12, align 8, !tbaa !26
  call void @llvm.lifetime.end.p0(i64 8, ptr %5) #14
  ret void
}

; Function Attrs: mustprogress nounwind uwtable
define linkonce_odr void @_ZN3zmq12array_item_tILi2EE15set_array_indexEi(ptr noundef nonnull align 8 dereferenceable(12) %0, i32 noundef %1) #0 comdat align 2 {
  %3 = alloca ptr, align 8
  %4 = alloca i32, align 4
  store ptr %0, ptr %3, align 8, !tbaa !66
  store i32 %1, ptr %4, align 4, !tbaa !36
  %5 = load ptr, ptr %3, align 8
  %6 = load i32, ptr %4, align 4, !tbaa !36
  %7 = getelementptr inbounds nuw %"class.zmq::array_item_t.7", ptr %5, i32 0, i32 1
  store i32 %6, ptr %7, align 8, !tbaa !68
  ret void
}

; Function Attrs: mustprogress nounwind uwtable
define linkonce_odr noundef nonnull align 8 dereferenceable(8) ptr @_ZNSt6vectorIPN3zmq6pipe_tESaIS2_EEixEm(ptr noundef nonnull align 8 dereferenceable(24) %0, i64 noundef %1) #0 comdat align 2 {
  %3 = alloca ptr, align 8
  %4 = alloca i64, align 8
  store ptr %0, ptr %3, align 8, !tbaa !43
  store i64 %1, ptr %4, align 8, !tbaa !30
  %5 = load ptr, ptr %3, align 8
  %6 = getelementptr inbounds nuw %"struct.std::_Vector_base", ptr %5, i32 0, i32 0
  %7 = getelementptr inbounds nuw %"struct.std::_Vector_base<zmq::pipe_t *, std::allocator<zmq::pipe_t *>>::_Vector_impl_data", ptr %6, i32 0, i32 0
  %8 = load ptr, ptr %7, align 8, !tbaa !53
  %9 = load i64, ptr %4, align 8, !tbaa !30
  %10 = getelementptr inbounds nuw ptr, ptr %8, i64 %9
  ret ptr %10
}

; Function Attrs: mustprogress nounwind uwtable
define linkonce_odr void @_ZN3zmq7array_tINS_6pipe_tELi2EE4swapEmm(ptr noundef nonnull align 8 dereferenceable(24) %0, i64 noundef %1, i64 noundef %2) #0 comdat align 2 {
  %4 = alloca ptr, align 8
  %5 = alloca i64, align 8
  %6 = alloca i64, align 8
  store ptr %0, ptr %4, align 8, !tbaa !22
  store i64 %1, ptr %5, align 8, !tbaa !30
  store i64 %2, ptr %6, align 8, !tbaa !30
  %7 = load ptr, ptr %4, align 8
  %8 = getelementptr inbounds nuw %"class.zmq::array_t", ptr %7, i32 0, i32 0
  %9 = load i64, ptr %5, align 8, !tbaa !30
  %10 = call noundef nonnull align 8 dereferenceable(8) ptr @_ZNSt6vectorIPN3zmq6pipe_tESaIS2_EEixEm(ptr noundef nonnull align 8 dereferenceable(24) %8, i64 noundef %9) #14
  %11 = load ptr, ptr %10, align 8, !tbaa !26
  %12 = icmp ne ptr %11, null
  br i1 %12, label %13, label %25

13:                                               ; preds = %3
  %14 = getelementptr inbounds nuw %"class.zmq::array_t", ptr %7, i32 0, i32 0
  %15 = load i64, ptr %5, align 8, !tbaa !30
  %16 = call noundef nonnull align 8 dereferenceable(8) ptr @_ZNSt6vectorIPN3zmq6pipe_tESaIS2_EEixEm(ptr noundef nonnull align 8 dereferenceable(24) %14, i64 noundef %15) #14
  %17 = load ptr, ptr %16, align 8, !tbaa !26
  %18 = icmp eq ptr %17, null
  br i1 %18, label %21, label %19

19:                                               ; preds = %13
  %20 = getelementptr inbounds i8, ptr %17, i64 40
  br label %21

21:                                               ; preds = %19, %13
  %22 = phi ptr [ %20, %19 ], [ null, %13 ]
  %23 = load i64, ptr %6, align 8, !tbaa !30
  %24 = trunc i64 %23 to i32
  call void @_ZN3zmq12array_item_tILi2EE15set_array_indexEi(ptr noundef nonnull align 8 dereferenceable(12) %22, i32 noundef %24)
  br label %25

25:                                               ; preds = %21, %3
  %26 = getelementptr inbounds nuw %"class.zmq::array_t", ptr %7, i32 0, i32 0
  %27 = load i64, ptr %6, align 8, !tbaa !30
  %28 = call noundef nonnull align 8 dereferenceable(8) ptr @_ZNSt6vectorIPN3zmq6pipe_tESaIS2_EEixEm(ptr noundef nonnull align 8 dereferenceable(24) %26, i64 noundef %27) #14
  %29 = load ptr, ptr %28, align 8, !tbaa !26
  %30 = icmp ne ptr %29, null
  br i1 %30, label %31, label %43

31:                                               ; preds = %25
  %32 = getelementptr inbounds nuw %"class.zmq::array_t", ptr %7, i32 0, i32 0
  %33 = load i64, ptr %6, align 8, !tbaa !30
  %34 = call noundef nonnull align 8 dereferenceable(8) ptr @_ZNSt6vectorIPN3zmq6pipe_tESaIS2_EEixEm(ptr noundef nonnull align 8 dereferenceable(24) %32, i64 noundef %33) #14
  %35 = load ptr, ptr %34, align 8, !tbaa !26
  %36 = icmp eq ptr %35, null
  br i1 %36, label %39, label %37

37:                                               ; preds = %31
  %38 = getelementptr inbounds i8, ptr %35, i64 40
  br label %39

39:                                               ; preds = %37, %31
  %40 = phi ptr [ %38, %37 ], [ null, %31 ]
  %41 = load i64, ptr %5, align 8, !tbaa !30
  %42 = trunc i64 %41 to i32
  call void @_ZN3zmq12array_item_tILi2EE15set_array_indexEi(ptr noundef nonnull align 8 dereferenceable(12) %40, i32 noundef %42)
  br label %43

43:                                               ; preds = %39, %25
  %44 = getelementptr inbounds nuw %"class.zmq::array_t", ptr %7, i32 0, i32 0
  %45 = load i64, ptr %5, align 8, !tbaa !30
  %46 = call noundef nonnull align 8 dereferenceable(8) ptr @_ZNSt6vectorIPN3zmq6pipe_tESaIS2_EEixEm(ptr noundef nonnull align 8 dereferenceable(24) %44, i64 noundef %45) #14
  %47 = getelementptr inbounds nuw %"class.zmq::array_t", ptr %7, i32 0, i32 0
  %48 = load i64, ptr %6, align 8, !tbaa !30
  %49 = call noundef nonnull align 8 dereferenceable(8) ptr @_ZNSt6vectorIPN3zmq6pipe_tESaIS2_EEixEm(ptr noundef nonnull align 8 dereferenceable(24) %47, i64 noundef %48) #14
  call void @_ZSt4swapIPN3zmq6pipe_tEENSt9enable_ifIXsr6__and_ISt6__not_ISt15__is_tuple_likeIT_EESt21is_move_constructibleIS6_ESt18is_move_assignableIS6_EEE5valueEvE4typeERS6_SF_(ptr noundef nonnull align 8 dereferenceable(8) %46, ptr noundef nonnull align 8 dereferenceable(8) %49) #14
  ret void
}

; Function Attrs: mustprogress nounwind uwtable
define void @_ZN3zmq6dist_t7unmatchEv(ptr noundef nonnull align 8 dereferenceable(49) %0) #0 align 2 {
  %2 = alloca ptr, align 8
  store ptr %0, ptr %2, align 8, !tbaa !3
  %3 = load ptr, ptr %2, align 8
  %4 = getelementptr inbounds nuw %"class.zmq::dist_t", ptr %3, i32 0, i32 1
  store i64 0, ptr %4, align 8, !tbaa !8
  ret void
}

; Function Attrs: mustprogress uwtable
define void @_ZN3zmq6dist_t13reverse_matchEv(ptr noundef nonnull align 8 dereferenceable(49) %0) #6 align 2 {
  %2 = alloca ptr, align 8
  %3 = alloca i64, align 8
  %4 = alloca i64, align 8
  store ptr %0, ptr %2, align 8, !tbaa !3
  %5 = load ptr, ptr %2, align 8
  call void @llvm.lifetime.start.p0(i64 8, ptr %3) #14
  %6 = getelementptr inbounds nuw %"class.zmq::dist_t", ptr %5, i32 0, i32 1
  %7 = load i64, ptr %6, align 8, !tbaa !8
  store i64 %7, ptr %3, align 8, !tbaa !30
  call void @_ZN3zmq6dist_t7unmatchEv(ptr noundef nonnull align 8 dereferenceable(49) %5)
  call void @llvm.lifetime.start.p0(i64 8, ptr %4) #14
  %8 = load i64, ptr %3, align 8, !tbaa !30
  store i64 %8, ptr %4, align 8, !tbaa !30
  br label %9

9:                                                ; preds = %21, %1
  %10 = load i64, ptr %4, align 8, !tbaa !30
  %11 = getelementptr inbounds nuw %"class.zmq::dist_t", ptr %5, i32 0, i32 3
  %12 = load i64, ptr %11, align 8, !tbaa !20
  %13 = icmp ult i64 %10, %12
  br i1 %13, label %15, label %14

14:                                               ; preds = %9
  call void @llvm.lifetime.end.p0(i64 8, ptr %4) #14
  br label %24

15:                                               ; preds = %9
  %16 = getelementptr inbounds nuw %"class.zmq::dist_t", ptr %5, i32 0, i32 0
  %17 = load i64, ptr %4, align 8, !tbaa !30
  %18 = getelementptr inbounds nuw %"class.zmq::dist_t", ptr %5, i32 0, i32 1
  %19 = load i64, ptr %18, align 8, !tbaa !8
  %20 = add i64 %19, 1
  store i64 %20, ptr %18, align 8, !tbaa !8
  call void @_ZN3zmq7array_tINS_6pipe_tELi2EE4swapEmm(ptr noundef nonnull align 8 dereferenceable(24) %16, i64 noundef %17, i64 noundef %19)
  br label %21

21:                                               ; preds = %15
  %22 = load i64, ptr %4, align 8, !tbaa !30
  %23 = add i64 %22, 1
  store i64 %23, ptr %4, align 8, !tbaa !30
  br label %9, !llvm.loop !31

24:                                               ; preds = %14
  call void @llvm.lifetime.end.p0(i64 8, ptr %3) #14
  ret void
}