; Function Attrs: mustprogress nofree norecurse nosync nounwind memory(readwrite, inaccessiblemem: none) uwtable
define void @_ZN3zmq6dist_t13reverse_matchEv(ptr noundef nonnull align 8 captures(none) dereferenceable(49) %0) local_unnamed_addr #9 align 2 {
  %2 = getelementptr inbounds nuw i8, ptr %0, i64 24
  %3 = load i64, ptr %2, align 8, !tbaa !33
  store i64 0, ptr %2, align 8, !tbaa !33
  %4 = getelementptr inbounds nuw i8, ptr %0, i64 40
  %5 = load i64, ptr %4, align 8, !tbaa !31
  %6 = icmp ult i64 %3, %5
  br i1 %6, label %.lr.ph, label %8

.lr.ph:                                           ; preds = %1
  %7 = load ptr, ptr %0, align 8, !tbaa !12
  br label %9

._crit_edge:                                      ; preds = %_ZN3zmq7array_tINS_6pipe_tELi2EE4swapEmm.exit
  store i64 %11, ptr %2, align 8, !tbaa !33
  br label %8

8:                                                ; preds = %._crit_edge, %1
  ret void

9:                                                ; preds = %.lr.ph, %_ZN3zmq7array_tINS_6pipe_tELi2EE4swapEmm.exit
  %.04 = phi i64 [ %3, %.lr.ph ], [ %23, %_ZN3zmq7array_tINS_6pipe_tELi2EE4swapEmm.exit ]
  %10 = phi i64 [ 0, %.lr.ph ], [ %11, %_ZN3zmq7array_tINS_6pipe_tELi2EE4swapEmm.exit ]
  %11 = add i64 %10, 1
  %12 = getelementptr inbounds nuw ptr, ptr %7, i64 %.04
  %13 = load ptr, ptr %12, align 8, !tbaa !29
  %.not.i = icmp eq ptr %13, null
  br i1 %.not.i, label %17, label %14

14:                                               ; preds = %9
  %15 = trunc i64 %10 to i32
  %16 = getelementptr inbounds nuw i8, ptr %13, i64 48
  store i32 %15, ptr %16, align 8, !tbaa !25
  br label %17

17:                                               ; preds = %14, %9
  %18 = getelementptr inbounds nuw ptr, ptr %7, i64 %10
  %19 = load ptr, ptr %18, align 8, !tbaa !29
  %.not8.i = icmp eq ptr %19, null
  br i1 %.not8.i, label %_ZN3zmq7array_tINS_6pipe_tELi2EE4swapEmm.exit, label %20

20:                                               ; preds = %17
  %21 = trunc i64 %.04 to i32
  %22 = getelementptr inbounds nuw i8, ptr %19, i64 48
  store i32 %21, ptr %22, align 8, !tbaa !25
  br label %_ZN3zmq7array_tINS_6pipe_tELi2EE4swapEmm.exit

_ZN3zmq7array_tINS_6pipe_tELi2EE4swapEmm.exit:    ; preds = %17, %20
  store ptr %19, ptr %12, align 8, !tbaa !29
  store ptr %13, ptr %18, align 8, !tbaa !29
  %23 = add nuw i64 %.04, 1
  %exitcond.not = icmp eq i64 %23, %5
  br i1 %exitcond.not, label %._crit_edge, label %9, !llvm.loop !34
}